; Function Attrs: mustprogress nounwind uwtable
define dso_local noundef ptr @LLVMConstIntOfString(ptr noundef %0, ptr noundef %1, i8 noundef zeroext %2) local_unnamed_addr #0 {
  %.not.i = icmp eq ptr %1, null
  br i1 %.not.i, label %_ZN4llvm9StringRefC2EPKc.exit, label %4

4:                                                ; preds = %3
  %5 = tail call noundef i64 @strlen(ptr noundef nonnull dereferenceable(1) %1) #35
  br label %_ZN4llvm9StringRefC2EPKc.exit

_ZN4llvm9StringRefC2EPKc.exit:                    ; preds = %3, %4
  %6 = phi i64 [ %5, %4 ], [ 0, %3 ]
  %7 = tail call noundef ptr @_ZN4llvm11ConstantInt3getEPNS_11IntegerTypeENS_9StringRefEh(ptr noundef %0, ptr %1, i64 %6, i8 noundef zeroext %2) #35
  ret ptr %7
}